; Function Attrs: mustprogress uwtable
define void @_ZN2cv4gapi9fitLine2DERKNS_4GMatENS_13DistanceTypesEddd(ptr dead_on_unwind noalias writable sret(%"class.cv::GOpaque.14") align 8 %0, ptr nocapture noundef nonnull readonly align 8 dereferenceable(16) %1, i32 noundef %2, double noundef %3, double noundef %4, double noundef %5) local_unnamed_addr #3 personality ptr @__gxx_personality_v0 {
  %7 = alloca %"class.cv::GMat", align 8
  %8 = load ptr, ptr %1, align 8
  store ptr %8, ptr %7, align 8
  %9 = getelementptr inbounds i8, ptr %7, i64 8
  %10 = getelementptr inbounds i8, ptr %1, i64 8
  %11 = load ptr, ptr %10, align 8
  store ptr %11, ptr %9, align 8
  %.not.i.i.i.i = icmp eq ptr %11, null
  br i1 %.not.i.i.i.i, label %_ZN2cv4GMatC2ERKS0_.exit, label %12

12:                                               ; preds = %6
  %13 = getelementptr inbounds i8, ptr %11, i64 8
  %14 = load i8, ptr @__libc_single_threaded, align 1
  %.not.i.i.i.i.i = icmp eq i8 %14, 0
  br i1 %.not.i.i.i.i.i, label %18, label %15

15:                                               ; preds = %12
  %16 = load i32, ptr %13, align 4
  %17 = add nsw i32 %16, 1
  store i32 %17, ptr %13, align 4
  br label %_ZN2cv4GMatC2ERKS0_.exit

18:                                               ; preds = %12
  %19 = atomicrmw volatile add ptr %13, i32 1 acq_rel, align 4
  br label %_ZN2cv4GMatC2ERKS0_.exit

_ZN2cv4GMatC2ERKS0_.exit:                         ; preds = %6, %15, %18
  invoke void @_ZN2cv11GKernelTypeINS_4gapi7imgproc13GFitLine2DMatESt8functionIFNS_7GOpaqueINS_3VecIfLi4EEEEENS_4GMatENS_13DistanceTypesEdddEEE2onES9_SA_ddd(ptr dead_on_unwind writable sret(%"class.cv::GOpaque.14") align 8 %0, ptr noundef nonnull %7, i32 noundef %2, double noundef %3, double noundef %4, double noundef %5)
          to label %20 unwind label %56

20:                                               ; preds = %_ZN2cv4GMatC2ERKS0_.exit
  %21 = load ptr, ptr %9, align 8
  %.not.i.i.i.i6 = icmp eq ptr %21, null
  br i1 %.not.i.i.i.i6, label %_ZN2cv4GMatD2Ev.exit, label %22

22:                                               ; preds = %20
  %23 = getelementptr inbounds i8, ptr %21, i64 8
  %24 = load atomic i64, ptr %23 acquire, align 8
  %25 = icmp eq i64 %24, 4294967297
  %26 = trunc i64 %24 to i32
  br i1 %25, label %27, label %32

27:                                               ; preds = %22
  store i32 0, ptr %23, align 8
  %28 = getelementptr inbounds i8, ptr %21, i64 12
  store i32 0, ptr %28, align 4
  %29 = load ptr, ptr %21, align 8
  %30 = getelementptr inbounds i8, ptr %29, i64 16
  %31 = load ptr, ptr %30, align 8
  call void %31(ptr noundef nonnull align 8 dereferenceable(16) %21) #18
  br label %_ZNSt16_Sp_counted_baseILN9__gnu_cxx12_Lock_policyE2EE24_M_release_last_use_coldEv.exit.sink.split.i.i.i.i.i

32:                                               ; preds = %22
  %33 = load i8, ptr @__libc_single_threaded, align 1
  %.not.i.i.i.i.i7 = icmp eq i8 %33, 0
  br i1 %.not.i.i.i.i.i7, label %36, label %34

34:                                               ; preds = %32
  %35 = add nsw i32 %26, -1
  store i32 %35, ptr %23, align 4
  br label %38

36:                                               ; preds = %32
  %37 = atomicrmw volatile add ptr %23, i32 -1 acq_rel, align 4
  br label %38

38:                                               ; preds = %36, %34
  %.0.i.i.i.i.i = phi i32 [ %26, %34 ], [ %37, %36 ]
  %39 = icmp eq i32 %.0.i.i.i.i.i, 1
  br i1 %39, label %40, label %_ZN2cv4GMatD2Ev.exit

40:                                               ; preds = %38
  %41 = load ptr, ptr %21, align 8
  %42 = getelementptr inbounds i8, ptr %41, i64 16
  %43 = load ptr, ptr %42, align 8
  call void %43(ptr noundef nonnull align 8 dereferenceable(16) %21) #18
  %44 = getelementptr inbounds i8, ptr %21, i64 12
  %45 = load i8, ptr @__libc_single_threaded, align 1
  %.not.i.i.i.i.i.i.i = icmp eq i8 %45, 0
  br i1 %.not.i.i.i.i.i.i.i, label %49, label %46

46:                                               ; preds = %40
  %47 = load i32, ptr %44, align 4
  %48 = add nsw i32 %47, -1
  store i32 %48, ptr %44, align 4
  br label %51

49:                                               ; preds = %40
  %50 = atomicrmw volatile add ptr %44, i32 -1 acq_rel, align 4
  br label %51

51:                                               ; preds = %49, %46
  %.0.i.i.i.i.i.i.i = phi i32 [ %47, %46 ], [ %50, %49 ]
  %52 = icmp eq i32 %.0.i.i.i.i.i.i.i, 1
  br i1 %52, label %_ZNSt16_Sp_counted_baseILN9__gnu_cxx12_Lock_policyE2EE24_M_release_last_use_coldEv.exit.sink.split.i.i.i.i.i, label %_ZN2cv4GMatD2Ev.exit

_ZNSt16_Sp_counted_baseILN9__gnu_cxx12_Lock_policyE2EE24_M_release_last_use_coldEv.exit.sink.split.i.i.i.i.i: ; preds = %51, %27
  %53 = load ptr, ptr %21, align 8
  %54 = getelementptr inbounds i8, ptr %53, i64 24
  %55 = load ptr, ptr %54, align 8
  call void %55(ptr noundef nonnull align 8 dereferenceable(16) %21) #18
  br label %_ZN2cv4GMatD2Ev.exit

_ZN2cv4GMatD2Ev.exit:                             ; preds = %20, %38, %51, %_ZNSt16_Sp_counted_baseILN9__gnu_cxx12_Lock_policyE2EE24_M_release_last_use_coldEv.exit.sink.split.i.i.i.i.i
  ret void

56:                                               ; preds = %_ZN2cv4GMatC2ERKS0_.exit
  %57 = landingpad { ptr, i32 }
          cleanup
  call void @_ZN2cv4GMatD2Ev(ptr noundef nonnull align 8 dereferenceable(16) %7) #18
  resume { ptr, i32 } %57
}